; Function Attrs: nounwind uwtable
define i64 @_php_stream_write(ptr noundef %0, ptr noundef %1, i64 noundef %2) local_unnamed_addr #2 {
  %4 = icmp eq i64 %2, 0
  br i1 %4, label %23, label %5

5:                                                ; preds = %3
  %6 = icmp ne ptr %1, null
  tail call void @llvm.assume(i1 %6)
  %7 = load ptr, ptr %0, align 8
  %8 = load ptr, ptr %7, align 8
  %9 = icmp eq ptr %8, null
  br i1 %9, label %10, label %11

10:                                               ; preds = %5
  tail call void (ptr, i32, ptr, ...) @php_error_docref(ptr noundef null, i32 noundef 8, ptr noundef nonnull @.str.1) #27
  br label %23

11:                                               ; preds = %5
  %12 = getelementptr inbounds i8, ptr %0, i64 40
  %13 = load ptr, ptr %12, align 8
  %.not = icmp eq ptr %13, null
  br i1 %.not, label %16, label %14

14:                                               ; preds = %11
  %15 = tail call fastcc i64 @_php_stream_write_filtered(ptr noundef nonnull %0, ptr noundef nonnull %1, i64 noundef %2, i32 noundef 0)
  br label %18

16:                                               ; preds = %11
  %17 = tail call fastcc i64 @_php_stream_write_buffer(ptr noundef nonnull %0, ptr noundef nonnull %1, i64 noundef %2)
  br label %18

18:                                               ; preds = %16, %14
  %.0 = phi i64 [ %15, %14 ], [ %17, %16 ]
  %.not15 = icmp eq i64 %.0, 0
  br i1 %.not15, label %23, label %19

19:                                               ; preds = %18
  %20 = getelementptr inbounds i8, ptr %0, i64 116
  %21 = load i32, ptr %20, align 4
  %22 = or i32 %21, -2147483648
  store i32 %22, ptr %20, align 4
  br label %23

23:                                               ; preds = %18, %19, %3, %10
  %.013 = phi i64 [ -1, %10 ], [ 0, %3 ], [ %.0, %19 ], [ 0, %18 ]
  ret i64 %.013
}